; Function Attrs: mustprogress uwtable
define void @_ZN8facebook5velox6common25updateGlobalSpillRunStatsEm(i64 noundef %numRuns) local_unnamed_addr #5 personality ptr @__gxx_personality_v0 {
if.then3.i.i.i:
  %call = tail call fastcc noundef nonnull align 8 dereferenceable(108) ptr @_ZN8facebook5velox6common12_GLOBAL__N_115localSpillStatsEv()
  %mutex_.i.i = getelementptr inbounds i8, ptr %call, i64 104
  tail call void @_ZN5folly15SharedMutexImplILb0EvSt6atomicNS_24SharedMutexPolicyDefaultEE4lockEv(ptr noundef nonnull align 4 dereferenceable(4) %mutex_.i.i), !noalias !4
  %0 = load i64, ptr %call, align 8
  %add = add i64 %0, %numRuns
  store i64 %add, ptr %call, align 8
  invoke void @_ZN5folly15SharedMutexImplILb0EvSt6atomicNS_24SharedMutexPolicyDefaultEE6unlockEv(ptr noundef nonnull align 4 dereferenceable(4) %mutex_.i.i)
          to label %_ZN5folly9LockedPtrINS_12SynchronizedIN8facebook5velox6common10SpillStatsENS_15SharedMutexImplILb0EvSt6atomicNS_24SharedMutexPolicyDefaultEEEEENS_6detail22SynchronizedLockPolicyILNSB_22SynchronizedMutexLevelE1ELNSB_23SynchronizedMutexMethodE0EEEED2Ev.exit unwind label %terminate.lpad.i.i

terminate.lpad.i.i:                               ; preds = %if.then3.i.i.i
  %1 = landingpad { ptr, i32 }
          catch ptr null
  %2 = extractvalue { ptr, i32 } %1, 0
  tail call void @__clang_call_terminate(ptr %2) #27
  unreachable

_ZN5folly9LockedPtrINS_12SynchronizedIN8facebook5velox6common10SpillStatsENS_15SharedMutexImplILb0EvSt6atomicNS_24SharedMutexPolicyDefaultEEEEENS_6detail22SynchronizedLockPolicyILNSB_22SynchronizedMutexLevelE1ELNSB_23SynchronizedMutexMethodE0EEEED2Ev.exit: ; preds = %if.then3.i.i.i
  ret void
}